target datalayout = "e-m:e-p270:32:32-p271:32:32-p272:64:64-i64:64-i128:128-f80:128-n8:16:32:64-S128"
target triple = "x86_64-pc-linux-gnu"

%struct.keys_st = type { i32, ptr, ptr, ptr, i32, i32 }

@testctx = internal global ptr null, align 8
@.str.18 = private unnamed_addr constant [33 x i8] c"../openssl/test/evp_extra_test.c\00", align 1
@.str.112 = private unnamed_addr constant [2 x i8] c"0\00", align 1
@.str.144 = private unnamed_addr constant [5 x i8] c"pkey\00", align 1
@.str.440 = private unnamed_addr constant [23 x i8] c"ctx = EVP_MD_CTX_new()\00", align 1
@.str.768 = private unnamed_addr constant [29 x i8] c"mac = OPENSSL_malloc(maclen)\00", align 1
@__const.test_ecx_not_private_key.msg = private unnamed_addr constant [4 x i8] c"\00\01\02\03", align 1
@.str.775 = private unnamed_addr constant [45 x i8] c"signing not supported for X25519/X448/ML-KEM\00", align 1
@.str.776 = private unnamed_addr constant [22 x i8] c"no public key present\00", align 1
@.str.777 = private unnamed_addr constant [52 x i8] c"EVP_DigestSign(ctx, mac, &maclen, msg, sizeof(msg))\00", align 1

; Function Attrs: inlinehint nounwind uwtable
define internal i32 @ERR_GET_REASON(i64 noundef %0) #7 {
  %2 = alloca i32, align 4
  %3 = alloca i64, align 8
  store i64 %0, ptr %3, align 8, !tbaa !23
  %4 = load i64, ptr %3, align 8, !tbaa !23
  %5 = and i64 %4, 2147483648
  %6 = icmp ne i64 %5, 0
  br i1 %6, label %7, label %11

7:                                                ; preds = %1
  %8 = load i64, ptr %3, align 8, !tbaa !23
  %9 = and i64 %8, 2147483647
  %10 = trunc i64 %9 to i32
  store i32 %10, ptr %2, align 4
  br label %15

11:                                               ; preds = %1
  %12 = load i64, ptr %3, align 8, !tbaa !23
  %13 = and i64 %12, 8388607
  %14 = trunc i64 %13 to i32
  store i32 %14, ptr %2, align 4
  br label %15

15:                                               ; preds = %11, %7
  %16 = load i32, ptr %2, align 4
  ret i32 %16
}

; Function Attrs: nounwind uwtable
define internal i32 @test_ecx_not_private_key(i32 noundef %0) #0 {
  %2 = alloca i32, align 4
  %3 = alloca i32, align 4
  %4 = alloca ptr, align 8
  %5 = alloca [4 x i8], align 1
  %6 = alloca i32, align 4
  %7 = alloca ptr, align 8
  %8 = alloca ptr, align 8
  %9 = alloca i64, align 8
  %10 = alloca ptr, align 8
  %11 = alloca i64, align 8
  %12 = alloca i32, align 4
  store i32 %0, ptr %3, align 4, !tbaa !9
  call void @llvm.lifetime.start.p0(i64 8, ptr %4) #8
  store ptr null, ptr %4, align 8, !tbaa !21
  call void @llvm.lifetime.start.p0(i64 4, ptr %5) #8
  call void @llvm.memcpy.p0.p0.i64(ptr align 1 %5, ptr align 1 @__const.test_ecx_not_private_key.msg, i64 4, i1 false)
  call void @llvm.lifetime.start.p0(i64 4, ptr %6) #8
  store i32 0, ptr %6, align 4, !tbaa !9
  call void @llvm.lifetime.start.p0(i64 8, ptr %7) #8
  store ptr null, ptr %7, align 8, !tbaa !25
  call void @llvm.lifetime.start.p0(i64 8, ptr %8) #8
  store ptr null, ptr %8, align 8, !tbaa !4
  call void @llvm.lifetime.start.p0(i64 8, ptr %9) #8
  store i64 0, ptr %9, align 8, !tbaa !23
  call void @llvm.lifetime.start.p0(i64 8, ptr %10) #8
  call void @llvm.lifetime.start.p0(i64 8, ptr %11) #8
  %13 = load i32, ptr %3, align 4, !tbaa !9
  %14 = sext i32 %13 to i64
  %15 = getelementptr inbounds [11 x %struct.keys_st], ptr @keys, i64 0, i64 %14
  %16 = getelementptr inbounds nuw %struct.keys_st, ptr %15, i32 0, i32 0
  %17 = load i32, ptr %16, align 8, !tbaa !135
  switch i32 %17, label %20 [
    i32 1034, label %18
    i32 1035, label %18
    i32 0, label %18
  ]

18:                                               ; preds = %1, %1, %1
  %19 = call i32 (ptr, i32, ptr, ...) @test_skip(ptr noundef @.str.18, i32 noundef 5946, ptr noundef @.str.775)
  store i32 %19, ptr %2, align 4
  store i32 1, ptr %12, align 4
  br label %98

20:                                               ; preds = %1
  %21 = load i32, ptr %3, align 4, !tbaa !9
  %22 = sext i32 %21 to i64
  %23 = getelementptr inbounds [11 x %struct.keys_st], ptr @keys, i64 0, i64 %22
  %24 = getelementptr inbounds nuw %struct.keys_st, ptr %23, i32 0, i32 2
  %25 = load ptr, ptr %24, align 8, !tbaa !137
  %26 = icmp eq ptr %25, null
  br i1 %26, label %27, label %29

27:                                               ; preds = %20
  %28 = call i32 (ptr, i32, ptr, ...) @test_skip(ptr noundef @.str.18, i32 noundef 5951, ptr noundef @.str.776)
  store i32 %28, ptr %2, align 4
  store i32 1, ptr %12, align 4
  br label %98

29:                                               ; preds = %20
  %30 = load i32, ptr %3, align 4, !tbaa !9
  %31 = sext i32 %30 to i64
  %32 = getelementptr inbounds [11 x %struct.keys_st], ptr @keys, i64 0, i64 %31
  %33 = getelementptr inbounds nuw %struct.keys_st, ptr %32, i32 0, i32 2
  %34 = load ptr, ptr %33, align 8, !tbaa !137
  store ptr %34, ptr %10, align 8, !tbaa !4
  %35 = load i32, ptr %3, align 4, !tbaa !9
  %36 = sext i32 %35 to i64
  %37 = getelementptr inbounds [11 x %struct.keys_st], ptr @keys, i64 0, i64 %36
  %38 = getelementptr inbounds nuw %struct.keys_st, ptr %37, i32 0, i32 5
  %39 = load i32, ptr %38, align 4, !tbaa !138
  %40 = sext i32 %39 to i64
  store i64 %40, ptr %11, align 8, !tbaa !23
  %41 = load ptr, ptr @testctx, align 8, !tbaa !11
  %42 = load i32, ptr %3, align 4, !tbaa !9
  %43 = sext i32 %42 to i64
  %44 = getelementptr inbounds [11 x %struct.keys_st], ptr @keys, i64 0, i64 %43
  %45 = getelementptr inbounds nuw %struct.keys_st, ptr %44, i32 0, i32 0
  %46 = load i32, ptr %45, align 8, !tbaa !135
  %47 = call ptr @OBJ_nid2sn(i32 noundef %46)
  %48 = load ptr, ptr %10, align 8, !tbaa !4
  %49 = load i64, ptr %11, align 8, !tbaa !23
  %50 = call ptr @EVP_PKEY_new_raw_public_key_ex(ptr noundef %41, ptr noundef %47, ptr noundef null, ptr noundef %48, i64 noundef %49)
  store ptr %50, ptr %4, align 8, !tbaa !21
  %51 = load ptr, ptr %4, align 8, !tbaa !21
  %52 = call i32 @test_ptr(ptr noundef @.str.18, i32 noundef 5958, ptr noundef @.str.144, ptr noundef %51)
  %53 = icmp ne i32 %52, 0
  br i1 %53, label %55, label %54

54:                                               ; preds = %29
  br label %93

55:                                               ; preds = %29
  %56 = call ptr @EVP_MD_CTX_new()
  store ptr %56, ptr %7, align 8, !tbaa !25
  %57 = call i32 @test_ptr(ptr noundef @.str.18, i32 noundef 5961, ptr noundef @.str.440, ptr noundef %56)
  %58 = icmp ne i32 %57, 0
  br i1 %58, label %60, label %59

59:                                               ; preds = %55
  br label %93

60:                                               ; preds = %55
  %61 = load ptr, ptr %7, align 8, !tbaa !25
  %62 = load ptr, ptr %4, align 8, !tbaa !21
  %63 = call i32 @EVP_DigestSignInit(ptr noundef %61, ptr noundef null, ptr noundef null, ptr noundef null, ptr noundef %62)
  %64 = icmp ne i32 %63, 1
  br i1 %64, label %65, label %66

65:                                               ; preds = %60
  br label %87

66:                                               ; preds = %60
  %67 = load ptr, ptr %7, align 8, !tbaa !25
  %68 = getelementptr inbounds [4 x i8], ptr %5, i64 0, i64 0
  %69 = call i32 @EVP_DigestSign(ptr noundef %67, ptr noundef null, ptr noundef %9, ptr noundef %68, i64 noundef 4)
  %70 = icmp ne i32 %69, 1
  br i1 %70, label %71, label %72

71:                                               ; preds = %66
  br label %87

72:                                               ; preds = %66
  %73 = load i64, ptr %9, align 8, !tbaa !23
  %74 = call noalias ptr @CRYPTO_malloc(i64 noundef %73, ptr noundef @.str.18, i32 noundef 5970)
  store ptr %74, ptr %8, align 8, !tbaa !4
  %75 = call i32 @test_ptr(ptr noundef @.str.18, i32 noundef 5970, ptr noundef @.str.768, ptr noundef %74)
  %76 = icmp ne i32 %75, 0
  br i1 %76, label %78, label %77

77:                                               ; preds = %72
  br label %93

78:                                               ; preds = %72
  %79 = load ptr, ptr %7, align 8, !tbaa !25
  %80 = load ptr, ptr %8, align 8, !tbaa !4
  %81 = getelementptr inbounds [4 x i8], ptr %5, i64 0, i64 0
  %82 = call i32 @EVP_DigestSign(ptr noundef %79, ptr noundef %80, ptr noundef %9, ptr noundef %81, i64 noundef 4)
  %83 = call i32 @test_int_eq(ptr noundef @.str.18, i32 noundef 5973, ptr noundef @.str.777, ptr noundef @.str.112, i32 noundef %82, i32 noundef 0)
  %84 = icmp ne i32 %83, 0
  br i1 %84, label %86, label %85

85:                                               ; preds = %78
  br label %93

86:                                               ; preds = %78
  br label %87

87:                                               ; preds = %86, %71, %65
  %88 = call i64 @ERR_peek_error()
  %89 = call i32 @ERR_GET_REASON(i64 noundef %88)
  %90 = icmp eq i32 %89, 221
  br i1 %90, label %91, label %92

91:                                               ; preds = %87
  store i32 1, ptr %6, align 4, !tbaa !9
  call void @ERR_clear_error()
  br label %92

92:                                               ; preds = %91, %87
  br label %93

93:                                               ; preds = %92, %85, %77, %59, %54
  %94 = load ptr, ptr %7, align 8, !tbaa !25
  call void @EVP_MD_CTX_free(ptr noundef %94)
  %95 = load ptr, ptr %8, align 8, !tbaa !4
  call void @CRYPTO_free(ptr noundef %95, ptr noundef @.str.18, i32 noundef 5989)
  %96 = load ptr, ptr %4, align 8, !tbaa !21
  call void @EVP_PKEY_free(ptr noundef %96)
  %97 = load i32, ptr %6, align 4, !tbaa !9
  store i32 %97, ptr %2, align 4
  store i32 1, ptr %12, align 4
  br label %98

98:                                               ; preds = %93, %27, %18
  call void @llvm.lifetime.end.p0(i64 8, ptr %11) #8
  call void @llvm.lifetime.end.p0(i64 8, ptr %10) #8
  call void @llvm.lifetime.end.p0(i64 8, ptr %9) #8
  call void @llvm.lifetime.end.p0(i64 8, ptr %8) #8
  call void @llvm.lifetime.end.p0(i64 8, ptr %7) #8
  call void @llvm.lifetime.end.p0(i64 4, ptr %6) #8
  call void @llvm.lifetime.end.p0(i64 4, ptr %5) #8
  call void @llvm.lifetime.end.p0(i64 8, ptr %4) #8
  %99 = load i32, ptr %2, align 4
  ret i32 %99
}