; Function Attrs: nounwind uwtable
define internal i32 @test_ecx_not_private_key(i32 noundef %0) #1 {
  %2 = alloca [4 x i8], align 4
  %3 = alloca i64, align 8
  call void @llvm.lifetime.start.p0(i64 4, ptr nonnull %2) #9
  store i32 50462976, ptr %2, align 4
  call void @llvm.lifetime.start.p0(i64 8, ptr nonnull %3) #9
  store i64 0, ptr %3, align 8, !tbaa !15
  %4 = sext i32 %0 to i64
  %5 = getelementptr inbounds [11 x %struct.keys_st], ptr @keys, i64 0, i64 %4
  %6 = load i32, ptr %5, align 8, !tbaa !91
  switch i32 %6, label %9 [
    i32 1034, label %7
    i32 1035, label %7
    i32 0, label %7
  ]

7:                                                ; preds = %1, %1, %1
  %8 = tail call i32 (ptr, i32, ptr, ...) @test_skip(ptr noundef nonnull @.str.18, i32 noundef 5946, ptr noundef nonnull @.str.775) #9
  br label %44

9:                                                ; preds = %1
  %10 = getelementptr inbounds nuw i8, ptr %5, i64 16
  %11 = load ptr, ptr %10, align 8, !tbaa !93
  %12 = icmp eq ptr %11, null
  br i1 %12, label %13, label %15

13:                                               ; preds = %9
  %14 = tail call i32 (ptr, i32, ptr, ...) @test_skip(ptr noundef nonnull @.str.18, i32 noundef 5951, ptr noundef nonnull @.str.776) #9
  br label %44

15:                                               ; preds = %9
  %16 = getelementptr inbounds nuw i8, ptr %5, i64 36
  %17 = load i32, ptr %16, align 4, !tbaa !94
  %18 = sext i32 %17 to i64
  %19 = load ptr, ptr @testctx, align 8, !tbaa !6
  %20 = tail call ptr @OBJ_nid2sn(i32 noundef %6) #9
  %21 = tail call ptr @EVP_PKEY_new_raw_public_key_ex(ptr noundef %19, ptr noundef %20, ptr noundef null, ptr noundef nonnull %11, i64 noundef %18) #9
  %22 = tail call i32 @test_ptr(ptr noundef nonnull @.str.18, i32 noundef 5958, ptr noundef nonnull @.str.144, ptr noundef %21) #9
  %.not = icmp eq i32 %22, 0
  br i1 %.not, label %43, label %23

23:                                               ; preds = %15
  %24 = tail call ptr @EVP_MD_CTX_new() #9
  %25 = tail call i32 @test_ptr(ptr noundef nonnull @.str.18, i32 noundef 5961, ptr noundef nonnull @.str.440, ptr noundef %24) #9
  %.not21 = icmp eq i32 %25, 0
  br i1 %.not21, label %43, label %26

26:                                               ; preds = %23
  %27 = tail call i32 @EVP_DigestSignInit(ptr noundef %24, ptr noundef null, ptr noundef null, ptr noundef null, ptr noundef %21) #9
  %.not22 = icmp eq i32 %27, 1
  br i1 %.not22, label %28, label %37

28:                                               ; preds = %26
  %29 = call i32 @EVP_DigestSign(ptr noundef %24, ptr noundef null, ptr noundef nonnull %3, ptr noundef nonnull %2, i64 noundef 4) #9
  %.not23 = icmp eq i32 %29, 1
  br i1 %.not23, label %30, label %37

30:                                               ; preds = %28
  %31 = load i64, ptr %3, align 8, !tbaa !15
  %32 = call noalias ptr @CRYPTO_malloc(i64 noundef %31, ptr noundef nonnull @.str.18, i32 noundef 5970) #9
  %33 = call i32 @test_ptr(ptr noundef nonnull @.str.18, i32 noundef 5970, ptr noundef nonnull @.str.768, ptr noundef %32) #9
  %.not24 = icmp eq i32 %33, 0
  br i1 %.not24, label %43, label %34

34:                                               ; preds = %30
  %35 = call i32 @EVP_DigestSign(ptr noundef %24, ptr noundef %32, ptr noundef nonnull %3, ptr noundef nonnull %2, i64 noundef 4) #9
  %36 = call i32 @test_int_eq(ptr noundef nonnull @.str.18, i32 noundef 5973, ptr noundef nonnull @.str.777, ptr noundef nonnull @.str.112, i32 noundef %35, i32 noundef 0) #9
  %.not25 = icmp eq i32 %36, 0
  br i1 %.not25, label %43, label %37

37:                                               ; preds = %34, %28, %26
  %.1 = phi ptr [ null, %26 ], [ null, %28 ], [ %32, %34 ]
  %38 = call i64 @ERR_peek_error() #9
  %39 = and i64 %38, 2147483648
  %.not.i = icmp eq i64 %39, 0
  %40 = trunc i64 %38 to i32
  %.0.v.i = select i1 %.not.i, i32 8388607, i32 2147483647
  %.0.i = and i32 %.0.v.i, %40
  %41 = icmp eq i32 %.0.i, 221
  br i1 %41, label %42, label %43

42:                                               ; preds = %37
  call void @ERR_clear_error() #9
  br label %43

43:                                               ; preds = %37, %42, %34, %30, %23, %15
  %.019 = phi i32 [ 1, %42 ], [ 0, %37 ], [ 0, %34 ], [ 0, %30 ], [ 0, %23 ], [ 0, %15 ]
  %.018 = phi ptr [ %24, %42 ], [ %24, %37 ], [ %24, %34 ], [ %24, %30 ], [ %24, %23 ], [ null, %15 ]
  %.017 = phi ptr [ %.1, %42 ], [ %.1, %37 ], [ %32, %34 ], [ %32, %30 ], [ null, %23 ], [ null, %15 ]
  call void @EVP_MD_CTX_free(ptr noundef %.018) #9
  call void @CRYPTO_free(ptr noundef %.017, ptr noundef nonnull @.str.18, i32 noundef 5989) #9
  call void @EVP_PKEY_free(ptr noundef %21) #9
  br label %44

44:                                               ; preds = %43, %13, %7
  %.0 = phi i32 [ %14, %13 ], [ %.019, %43 ], [ %8, %7 ]
  call void @llvm.lifetime.end.p0(i64 8, ptr nonnull %3) #9
  call void @llvm.lifetime.end.p0(i64 4, ptr nonnull %2) #9
  ret i32 %.0
}